target datalayout = "e-m:e-p270:32:32-p271:32:32-p272:64:64-i64:64-i128:128-f80:128-n8:16:32:64-S128"
target triple = "x86_64-pc-linux-gnu"

%class.LayoutRawBlock = type <{ ptr, ptr, i32, i32, i32, i32, i32, i8, [3 x i8] }>
%class.GrowableArrayView = type { %class.GrowableArrayBase, ptr }
%class.GrowableArrayBase = type { i32, i32 }
%class.FieldLayout = type { ptr, ptr, ptr, ptr, ptr }

; Function Attrs: mustprogress nounwind uwtable
define hidden noundef zeroext i1 @_ZN14LayoutRawBlock3fitEii(ptr noundef nonnull align 8 dereferenceable(37) %0, i32 noundef %1, i32 noundef %2) #1 align 2 {
  %4 = alloca ptr, align 8
  %5 = alloca i32, align 4
  %6 = alloca i32, align 4
  %7 = alloca i32, align 4
  store ptr %0, ptr %4, align 8
  store i32 %1, ptr %5, align 4
  store i32 %2, ptr %6, align 4
  %8 = load ptr, ptr %4, align 8
  store i32 0, ptr %7, align 4
  %9 = getelementptr inbounds %class.LayoutRawBlock, ptr %8, i32 0, i32 3
  %10 = load i32, ptr %9, align 4
  %11 = load i32, ptr %6, align 4
  %12 = srem i32 %10, %11
  %13 = icmp ne i32 %12, 0
  br i1 %13, label %14, label %21

14:                                               ; preds = %3
  %15 = load i32, ptr %6, align 4
  %16 = getelementptr inbounds %class.LayoutRawBlock, ptr %8, i32 0, i32 3
  %17 = load i32, ptr %16, align 4
  %18 = load i32, ptr %6, align 4
  %19 = srem i32 %17, %18
  %20 = sub nsw i32 %15, %19
  store i32 %20, ptr %7, align 4
  br label %21

21:                                               ; preds = %14, %3
  %22 = getelementptr inbounds %class.LayoutRawBlock, ptr %8, i32 0, i32 5
  %23 = load i32, ptr %22, align 4
  %24 = load i32, ptr %5, align 4
  %25 = load i32, ptr %7, align 4
  %26 = add nsw i32 %24, %25
  %27 = icmp sge i32 %23, %26
  ret i1 %27
}

; Function Attrs: mustprogress nounwind uwtable
define linkonce_odr hidden noundef i32 @_ZNK14LayoutRawBlock9alignmentEv(ptr noundef nonnull align 8 dereferenceable(37) %0) #1 comdat align 2 {
  %2 = alloca ptr, align 8
  store ptr %0, ptr %2, align 8
  %3 = load ptr, ptr %2, align 8
  %4 = getelementptr inbounds %class.LayoutRawBlock, ptr %3, i32 0, i32 4
  %5 = load i32, ptr %4, align 8
  ret i32 %5
}

; Function Attrs: mustprogress nounwind uwtable
define linkonce_odr hidden noundef i32 @_ZNK14LayoutRawBlock4kindEv(ptr noundef nonnull align 8 dereferenceable(37) %0) #1 comdat align 2 {
  %2 = alloca ptr, align 8
  store ptr %0, ptr %2, align 8
  %3 = load ptr, ptr %2, align 8
  %4 = getelementptr inbounds %class.LayoutRawBlock, ptr %3, i32 0, i32 2
  %5 = load i32, ptr %4, align 8
  ret i32 %5
}

; Function Attrs: mustprogress nounwind uwtable
define linkonce_odr hidden noundef ptr @_ZNK14LayoutRawBlock10prev_blockEv(ptr noundef nonnull align 8 dereferenceable(37) %0) #1 comdat align 2 {
  %2 = alloca ptr, align 8
  store ptr %0, ptr %2, align 8
  %3 = load ptr, ptr %2, align 8
  %4 = getelementptr inbounds %class.LayoutRawBlock, ptr %3, i32 0, i32 1
  %5 = load ptr, ptr %4, align 8
  ret ptr %5
}

; Function Attrs: mustprogress nounwind uwtable
define linkonce_odr hidden noundef ptr @_ZN11FieldLayout10last_blockEv(ptr noundef nonnull align 8 dereferenceable(40) %0) #1 comdat align 2 {
  %2 = alloca ptr, align 8
  store ptr %0, ptr %2, align 8
  %3 = load ptr, ptr %2, align 8
  %4 = getelementptr inbounds %class.FieldLayout, ptr %3, i32 0, i32 4
  %5 = load ptr, ptr %4, align 8
  ret ptr %5
}

; Function Attrs: mustprogress nounwind uwtable
define linkonce_odr hidden noundef i32 @_ZNK14LayoutRawBlock4sizeEv(ptr noundef nonnull align 8 dereferenceable(37) %0) #1 comdat align 2 {
  %2 = alloca ptr, align 8
  store ptr %0, ptr %2, align 8
  %3 = load ptr, ptr %2, align 8
  %4 = getelementptr inbounds %class.LayoutRawBlock, ptr %3, i32 0, i32 5
  %5 = load i32, ptr %4, align 4
  ret i32 %5
}

; Function Attrs: mustprogress nounwind uwtable
define linkonce_odr hidden noundef nonnull align 8 dereferenceable(8) ptr @_ZN17GrowableArrayViewIP14LayoutRawBlockE2atEi(ptr noundef nonnull align 8 dereferenceable(16) %0, i32 noundef %1) #1 comdat align 2 {
  %3 = alloca ptr, align 8
  %4 = alloca i32, align 4
  store ptr %0, ptr %3, align 8
  store i32 %1, ptr %4, align 4
  %5 = load ptr, ptr %3, align 8
  %6 = getelementptr inbounds %class.GrowableArrayView, ptr %5, i32 0, i32 1
  %7 = load ptr, ptr %6, align 8
  %8 = load i32, ptr %4, align 4
  %9 = sext i32 %8 to i64
  %10 = getelementptr inbounds ptr, ptr %7, i64 %9
  ret ptr %10
}

; Function Attrs: mustprogress nounwind uwtable
define linkonce_odr hidden noundef i32 @_ZNK17GrowableArrayBase6lengthEv(ptr noundef nonnull align 4 dereferenceable(8) %0) #1 comdat align 2 {
  %2 = alloca ptr, align 8
  store ptr %0, ptr %2, align 8
  %3 = load ptr, ptr %2, align 8
  %4 = getelementptr inbounds %class.GrowableArrayBase, ptr %3, i32 0, i32 0
  %5 = load i32, ptr %4, align 4
  ret i32 %5
}

; Function Attrs: mustprogress nounwind uwtable
define hidden void @_ZN11FieldLayout16add_contiguouslyEP13GrowableArrayIP14LayoutRawBlockES2_(ptr noundef nonnull align 8 dereferenceable(40) %0, ptr noundef %1, ptr noundef %2) #1 align 2 {
  %4 = alloca ptr, align 8
  %5 = alloca ptr, align 8
  %6 = alloca ptr, align 8
  %7 = alloca i32, align 4
  %8 = alloca i32, align 4
  %9 = alloca ptr, align 8
  %10 = alloca ptr, align 8
  %11 = alloca i32, align 4
  %12 = alloca ptr, align 8
  store ptr %0, ptr %4, align 8
  store ptr %1, ptr %5, align 8
  store ptr %2, ptr %6, align 8
  %13 = load ptr, ptr %4, align 8
  %14 = load ptr, ptr %5, align 8
  %15 = icmp eq ptr %14, null
  br i1 %15, label %16, label %17

16:                                               ; preds = %3
  br label %92

17:                                               ; preds = %3
  %18 = load ptr, ptr %6, align 8
  %19 = icmp eq ptr %18, null
  br i1 %19, label %20, label %23

20:                                               ; preds = %17
  %21 = getelementptr inbounds %class.FieldLayout, ptr %13, i32 0, i32 3
  %22 = load ptr, ptr %21, align 8
  store ptr %22, ptr %6, align 8
  br label %23

23:                                               ; preds = %20, %17
  store i32 0, ptr %7, align 4
  store i32 0, ptr %8, align 4
  br label %24

24:                                               ; preds = %37, %23
  %25 = load i32, ptr %8, align 4
  %26 = load ptr, ptr %5, align 8
  %27 = call noundef i32 @_ZNK17GrowableArrayBase6lengthEv(ptr noundef nonnull align 4 dereferenceable(8) %26)
  %28 = icmp slt i32 %25, %27
  br i1 %28, label %29, label %40

29:                                               ; preds = %24
  %30 = load ptr, ptr %5, align 8
  %31 = load i32, ptr %8, align 4
  %32 = call noundef nonnull align 8 dereferenceable(8) ptr @_ZN17GrowableArrayViewIP14LayoutRawBlockE2atEi(ptr noundef nonnull align 8 dereferenceable(16) %30, i32 noundef %31)
  %33 = load ptr, ptr %32, align 8
  %34 = call noundef i32 @_ZNK14LayoutRawBlock4sizeEv(ptr noundef nonnull align 8 dereferenceable(37) %33)
  %35 = load i32, ptr %7, align 4
  %36 = add nsw i32 %35, %34
  store i32 %36, ptr %7, align 4
  br label %37

37:                                               ; preds = %29
  %38 = load i32, ptr %8, align 4
  %39 = add nsw i32 %38, 1
  store i32 %39, ptr %8, align 4
  br label %24, !llvm.loop !16

40:                                               ; preds = %24
  store ptr null, ptr %9, align 8
  %41 = load ptr, ptr %6, align 8
  %42 = call noundef ptr @_ZN11FieldLayout10last_blockEv(ptr noundef nonnull align 8 dereferenceable(40) %13)
  %43 = icmp eq ptr %41, %42
  br i1 %43, label %44, label %46

44:                                               ; preds = %40
  %45 = call noundef ptr @_ZN11FieldLayout10last_blockEv(ptr noundef nonnull align 8 dereferenceable(40) %13)
  store ptr %45, ptr %9, align 8
  br label %75

46:                                               ; preds = %40
  %47 = load ptr, ptr %5, align 8
  %48 = call noundef nonnull align 8 dereferenceable(8) ptr @_ZN17GrowableArrayViewIP14LayoutRawBlockE2atEi(ptr noundef nonnull align 8 dereferenceable(16) %47, i32 noundef 0)
  %49 = load ptr, ptr %48, align 8
  store ptr %49, ptr %10, align 8
  %50 = call noundef ptr @_ZN11FieldLayout10last_blockEv(ptr noundef nonnull align 8 dereferenceable(40) %13)
  %51 = call noundef ptr @_ZNK14LayoutRawBlock10prev_blockEv(ptr noundef nonnull align 8 dereferenceable(37) %50)
  store ptr %51, ptr %9, align 8
  br label %52

52:                                               ; preds = %71, %46
  %53 = load ptr, ptr %9, align 8
  %54 = call noundef i32 @_ZNK14LayoutRawBlock4kindEv(ptr noundef nonnull align 8 dereferenceable(37) %53)
  %55 = icmp ne i32 %54, 0
  br i1 %55, label %63, label %56

56:                                               ; preds = %52
  %57 = load ptr, ptr %9, align 8
  %58 = load i32, ptr %7, align 4
  %59 = load ptr, ptr %10, align 8
  %60 = call noundef i32 @_ZNK14LayoutRawBlock9alignmentEv(ptr noundef nonnull align 8 dereferenceable(37) %59)
  %61 = call noundef zeroext i1 @_ZN14LayoutRawBlock3fitEii(ptr noundef nonnull align 8 dereferenceable(37) %57, i32 noundef %58, i32 noundef %60)
  %62 = xor i1 %61, true
  br label %63

63:                                               ; preds = %56, %52
  %64 = phi i1 [ true, %52 ], [ %62, %56 ]
  br i1 %64, label %65, label %74

65:                                               ; preds = %63
  %66 = load ptr, ptr %9, align 8
  %67 = load ptr, ptr %6, align 8
  %68 = icmp eq ptr %66, %67
  br i1 %68, label %69, label %71

69:                                               ; preds = %65
  %70 = call noundef ptr @_ZN11FieldLayout10last_blockEv(ptr noundef nonnull align 8 dereferenceable(40) %13)
  store ptr %70, ptr %9, align 8
  br label %74

71:                                               ; preds = %65
  %72 = load ptr, ptr %9, align 8
  %73 = call noundef ptr @_ZNK14LayoutRawBlock10prev_blockEv(ptr noundef nonnull align 8 dereferenceable(37) %72)
  store ptr %73, ptr %9, align 8
  br label %52, !llvm.loop !17

74:                                               ; preds = %69, %63
  br label %75

75:                                               ; preds = %74, %44
  store i32 0, ptr %11, align 4
  br label %76

76:                                               ; preds = %89, %75
  %77 = load i32, ptr %11, align 4
  %78 = load ptr, ptr %5, align 8
  %79 = call noundef i32 @_ZNK17GrowableArrayBase6lengthEv(ptr noundef nonnull align 4 dereferenceable(8) %78)
  %80 = icmp slt i32 %77, %79
  br i1 %80, label %81, label %92

81:                                               ; preds = %76
  %82 = load ptr, ptr %5, align 8
  %83 = load i32, ptr %11, align 4
  %84 = call noundef nonnull align 8 dereferenceable(8) ptr @_ZN17GrowableArrayViewIP14LayoutRawBlockE2atEi(ptr noundef nonnull align 8 dereferenceable(16) %82, i32 noundef %83)
  %85 = load ptr, ptr %84, align 8
  store ptr %85, ptr %12, align 8
  %86 = load ptr, ptr %9, align 8
  %87 = load ptr, ptr %12, align 8
  %88 = call noundef ptr @_ZN11FieldLayout18insert_field_blockEP14LayoutRawBlockS1_(ptr noundef nonnull align 8 dereferenceable(40) %13, ptr noundef %86, ptr noundef %87)
  br label %89

89:                                               ; preds = %81
  %90 = load i32, ptr %11, align 4
  %91 = add nsw i32 %90, 1
  store i32 %91, ptr %11, align 4
  br label %76, !llvm.loop !18

92:                                               ; preds = %76, %16
  ret void
}