; Function Attrs: mustprogress nounwind uwtable
define hidden void @_ZN11FieldLayout16add_contiguouslyEP13GrowableArrayIP14LayoutRawBlockES2_(ptr nocapture noundef nonnull align 8 dereferenceable(40) %0, ptr noundef readonly %1, ptr noundef readnone %2) local_unnamed_addr #2 align 2 {
  %4 = icmp eq ptr %1, null
  br i1 %4, label %.loopexit, label %5

5:                                                ; preds = %3
  %6 = icmp eq ptr %2, null
  %7 = getelementptr inbounds i8, ptr %0, i64 24
  %8 = load ptr, ptr %7, align 8
  %.0 = select i1 %6, ptr %8, ptr %2
  %9 = load i32, ptr %1, align 4
  %10 = icmp sgt i32 %9, 0
  br i1 %10, label %.lr.ph, label %._crit_edge

.lr.ph:                                           ; preds = %5
  %11 = getelementptr inbounds i8, ptr %1, i64 8
  %12 = load ptr, ptr %11, align 8
  %wide.trip.count = zext nneg i32 %9 to i64
  br label %13

13:                                               ; preds = %.lr.ph, %13
  %indvars.iv = phi i64 [ 0, %.lr.ph ], [ %indvars.iv.next, %13 ]
  %.02533 = phi i32 [ 0, %.lr.ph ], [ %18, %13 ]
  %14 = getelementptr inbounds ptr, ptr %12, i64 %indvars.iv
  %15 = load ptr, ptr %14, align 8
  %16 = getelementptr inbounds i8, ptr %15, i64 28
  %17 = load i32, ptr %16, align 4
  %18 = add nsw i32 %17, %.02533
  %indvars.iv.next = add nuw nsw i64 %indvars.iv, 1
  %exitcond.not = icmp eq i64 %indvars.iv.next, %wide.trip.count
  br i1 %exitcond.not, label %._crit_edge, label %13, !llvm.loop !18

._crit_edge:                                      ; preds = %13, %5
  %.025.lcssa = phi i32 [ 0, %5 ], [ %18, %13 ]
  %19 = getelementptr inbounds i8, ptr %0, i64 32
  %20 = load ptr, ptr %19, align 8
  %21 = icmp eq ptr %.0, %20
  br i1 %21, label %.loopexit31, label %22

22:                                               ; preds = %._crit_edge
  %23 = getelementptr inbounds i8, ptr %1, i64 8
  %24 = load ptr, ptr %23, align 8
  %25 = load ptr, ptr %24, align 8
  %26 = getelementptr inbounds i8, ptr %25, i64 24
  br label %27

27:                                               ; preds = %.critedge, %22
  %.pn = phi ptr [ %20, %22 ], [ %.026, %.critedge ]
  %.026.in = getelementptr inbounds i8, ptr %.pn, i64 8
  %.026 = load ptr, ptr %.026.in, align 8
  %28 = getelementptr inbounds i8, ptr %.026, i64 16
  %29 = load i32, ptr %28, align 8
  %.not = icmp eq i32 %29, 0
  br i1 %.not, label %30, label %.critedge

30:                                               ; preds = %27
  %31 = load i32, ptr %26, align 8
  %32 = getelementptr inbounds i8, ptr %.026, i64 20
  %33 = load i32, ptr %32, align 4
  %34 = srem i32 %33, %31
  %.not.i = icmp eq i32 %34, 0
  %35 = sub nsw i32 %31, %34
  %spec.select.i = select i1 %.not.i, i32 0, i32 %35
  %36 = getelementptr inbounds i8, ptr %.026, i64 28
  %37 = load i32, ptr %36, align 4
  %38 = add nsw i32 %spec.select.i, %.025.lcssa
  %.not30 = icmp slt i32 %37, %38
  br i1 %.not30, label %.critedge, label %.loopexit31

.critedge:                                        ; preds = %27, %30
  %39 = icmp eq ptr %.026, %.0
  br i1 %39, label %.loopexit31, label %27, !llvm.loop !19

.loopexit31:                                      ; preds = %.critedge, %30, %._crit_edge
  %.1 = phi ptr [ %20, %._crit_edge ], [ %20, %.critedge ], [ %.026, %30 ]
  br i1 %10, label %.lr.ph36, label %.loopexit

.lr.ph36:                                         ; preds = %.loopexit31
  %40 = getelementptr inbounds i8, ptr %1, i64 8
  br label %41

41:                                               ; preds = %.lr.ph36, %41
  %indvars.iv38 = phi i64 [ 0, %.lr.ph36 ], [ %indvars.iv.next39, %41 ]
  %42 = load ptr, ptr %40, align 8
  %43 = getelementptr inbounds ptr, ptr %42, i64 %indvars.iv38
  %44 = load ptr, ptr %43, align 8
  %45 = tail call noundef ptr @_ZN11FieldLayout18insert_field_blockEP14LayoutRawBlockS1_(ptr noundef nonnull align 8 dereferenceable(40) %0, ptr noundef %.1, ptr noundef %44)
  %indvars.iv.next39 = add nuw nsw i64 %indvars.iv38, 1
  %46 = load i32, ptr %1, align 4
  %47 = sext i32 %46 to i64
  %48 = icmp slt i64 %indvars.iv.next39, %47
  br i1 %48, label %41, label %.loopexit, !llvm.loop !20

.loopexit:                                        ; preds = %41, %.loopexit31, %3
  ret void
}